Certificate:
    Data:
        Version: 3 (0x2)
        Serial Number: 1 (0x1)
        Signature Algorithm: sha256WithRSAEncryption
        Issuer: C=CN, ST=ZMZ, L=zmz, O=zmz, CN=localhost
        Validity
            Not Before: Apr  9 06:26:40 2020 GMT
            Not After : Apr  9 06:26:40 2021 GMT
        Subject: C=CN, ST=ZMZ, O=zmz, CN=172.0.10.91
        Subject Public Key Info:
            Public Key Algorithm: rsaEncryption
                RSA Public-Key: (2048 bit)
                Modulus:
                    00:fb:17:18:c9:7d:d4:d2:b0:a7:83:45:3b:2a:0d:
                    37:06:6c:ec:ef:1b:91:87:52:74:c5:36:95:42:76:
                    c2:57:3f:13:ff:67:32:86:bc:c6:b0:35:0a:2f:a3:
                    af:4a:bd:d6:3f:af:32:4c:9e:8d:42:ae:76:e5:5d:
                    55:5a:7c:b9:46:a9:a0:8c:af:ba:ed:0e:97:0f:b3:
                    2a:ee:28:8a:93:b4:b6:7a:46:26:fa:b7:9b:40:0b:
                    f0:ce:87:95:8a:e3:f7:28:a7:fe:dc:7b:9c:8d:cb:
                    cc:9e:12:4b:50:12:84:bb:b4:d0:5c:2c:b5:25:8e:
                    0f:d2:8b:f0:1f:8e:59:62:02:9a:22:2a:2d:f6:5d:
                    30:34:78:46:ae:d4:19:1d:cb:c9:c8:c6:1b:14:1d:
                    0f:e9:4f:e9:42:48:38:f7:1b:5c:71:69:f6:16:88:
                    7b:51:a4:38:3b:41:38:fc:48:20:c2:cb:3f:62:0e:
                    8e:08:06:58:68:17:6a:50:b1:43:5f:73:9c:4b:7b:
                    f2:71:05:04:e3:56:c7:94:ad:e2:62:7e:e9:d7:b8:
                    68:aa:c3:4a:1a:4d:85:11:9f:a8:2c:1a:6d:dd:26:
                    ba:c7:95:63:44:a8:78:d9:f6:c2:2a:cc:6f:ff:fa:
                    f6:1d:89:cf:50:72:74:e9:c0:c2:e1:ab:7b:ed:c1:
                    05:83
                Exponent: 65537 (0x10001)
        X509v3 extensions:
            X509v3 Basic Constraints: 
                CA:FALSE
            Netscape Comment: 
                OpenSSL Generated Certificate
            X509v3 Subject Key Identifier: 
                6A:4D:33:7D:A7:7B:89:46:9B:56:C2:73:FE:8A:94:CB:73:7A:B8:A0
            X509v3 Authority Key Identifier: 
                keyid:7A:4B:BE:D5:4A:D7:FD:99:89:66:99:66:9D:F2:AA:19:37:96:43:93

    Signature Algorithm: sha256WithRSAEncryption
         57:b2:2b:d6:b8:f9:17:fa:51:39:52:ae:07:90:9e:24:a0:12:
         1e:c1:de:9e:09:6f:97:72:dd:7d:31:72:53:be:09:a6:12:31:
         ee:dc:50:06:d2:55:e4:14:30:e2:fc:35:7f:8c:aa:e7:3d:f3:
         6b:ee:b0:b9:3e:f9:bf:c6:86:72:e4:da:e5:c6:0b:87:e6:19:
         78:ca:fe:75:05:74:27:05:37:c4:6b:3b:45:cf:ad:23:d7:bd:
         1d:18:09:8e:26:5e:ad:71:8c:d5:8a:c0:33:05:25:18:e7:d5:
         f3:70:6e:ee:60:02:fd:d3:2a:a2:56:8d:b3:e7:b3:b6:97:6f:
         2e:12:a4:fb:69:cd:55:55:96:cd:ff:25:52:18:e3:b5:b7:e1:
         01:35:e2:11:03:58:d5:bd:4f:4f:65:e9:ac:18:7f:b5:f3:11:
         45:e0:e2:e8:4d:2b:a1:1f:6f:57:89:b7:5e:99:64:50:af:9e:
         b0:b1:05:e0:c3:b3:8e:77:94:72:13:82:11:ad:8c:33:16:df:
         6a:ef:5e:e8:e4:7a:0e:e3:ab:f4:67:54:52:30:77:e4:1f:74:
         fb:c2:d2:d5:0f:43:c9:e3:eb:9f:e9:98:c1:a3:9d:fd:53:81:
         de:47:56:d7:19:a6:66:eb:26:ba:f4:20:34:76:2f:a4:ce:f4:
         ff:2f:db:c9
-----BEGIN CERTIFICATE-----
MIIDgDCCAmigAwIBAgIBATANBgkqhkiG9w0BAQsFADBLMQswCQYDVQQGEwJDTjEM
MAoGA1UECAwDWk1aMQwwCgYDVQQHDAN6bXoxDDAKBgNVBAoMA3ptejESMBAGA1UE
AwwJbG9jYWxob3N0MB4XDTIwMDQwOTA2MjY0MFoXDTIxMDQwOTA2MjY0MFowPzEL
MAkGA1UEBhMCQ04xDDAKBgNVBAgMA1pNWjEMMAoGA1UECgwDem16MRQwEgYDVQQD
DAsxNzIuMC4xMC45MTCCASIwDQYJKoZIhvcNAQEBBQADggEPADCCAQoCggEBAPsX
GMl91NKwp4NFOyoNNwZs7O8bkYdSdMU2lUJ2wlc/E/9nMoa8xrA1Ci+jr0q91j+v
MkyejUKuduVdVVp8uUapoIyvuu0Olw+zKu4oipO0tnpGJvq3m0AL8M6HlYrj9yin
/tx7nI3LzJ4SS1AShLu00FwstSWOD9KL8B+OWWICmiIqLfZdMDR4Rq7UGR3LycjG
GxQdD+lP6UJIOPcbXHFp9haIe1GkODtBOPxIIMLLP2IOjggGWGgXalCxQ19znEt7
8nEFBONWx5St4mJ+6de4aKrDShpNhRGfqCwabd0museVY0SoeNn2wirMb//69h2J
z1BydOnAwuGre+3BBYMCAwEAAaN7MHkwCQYDVR0TBAIwADAsBglghkgBhvhCAQ0E
HxYdT3BlblNTTCBHZW5lcmF0ZWQgQ2VydGlmaWNhdGUwHQYDVR0OBBYEFGpNM32n
e4lGm1bCc/6KlMtzerigMB8GA1UdIwQYMBaAFHpLvtVK1/2ZiWaZZp3yqhk3lkOT
MA0GCSqGSIb3DQEBCwUAA4IBAQBXsivWuPkX+lE5Uq4HkJ4koBIewd6eCW+Xct19
MXJTvgmmEjHu3FAG0lXkFDDi/DV/jKrnPfNr7rC5Pvm/xoZy5NrlxguH5hl4yv51
BXQnBTfEaztFz60j170dGAmOJl6tcYzVisAzBSUY59XzcG7uYAL90yqiVo2z57O2
l28uEqT7ac1VVZbN/yVSGOO1t+EBNeIRA1jVvU9PZemsGH+18xFF4OLoTSuhH29X
ibdemWRQr56wsQXgw7OOd5RyE4IRrYwzFt9q717o5HoO46v0Z1RSMHfkH3T7wtLV
D0PJ4+uf6ZjBo539U4HeR1bXGaZm6ya69CA0di+kzvT/L9vJ
-----END CERTIFICATE-----
